; Function Attrs: mustprogress nofree norecurse nounwind willreturn memory(readwrite, inaccessiblemem: none) uwtable
define internal void @__cxx_global_array_dtor.33(ptr nocapture readnone %0) #22 section ".text.startup" personality ptr @__gxx_personality_v0 {
  %2 = load ptr, ptr @_ZZN32pxrInternal_v0_24__pxrReserved__12_GLOBAL__N_114_CardsDrawMode17_CardsTextureNodeERKSt10shared_ptrINS_24HdTypedSampledDataSourceINS_12SdfAssetPathEEEERKS2_INS_16HdDataSourceBaseEEE20inputConnectionNames, align 8
  %3 = ptrtoint ptr %2 to i64
  %4 = and i64 %3, 7
  %.not.i.i = icmp eq i64 %4, 0
  br i1 %.not.i.i, label %_ZN32pxrInternal_v0_24__pxrReserved__7TfTokenD2Ev.exit, label %5

5:                                                ; preds = %1
  %6 = and i64 %3, -8
  %7 = inttoptr i64 %6 to ptr
  %8 = atomicrmw sub ptr %7, i32 2 release, align 4
  br label %_ZN32pxrInternal_v0_24__pxrReserved__7TfTokenD2Ev.exit

_ZN32pxrInternal_v0_24__pxrReserved__7TfTokenD2Ev.exit: ; preds = %1, %5
  ret void
}